; Function Attrs: mustprogress sspstrong uwtable
define internal noundef ptr @_ZL17py_an_get_n_treesP8py_annoy(ptr noundef readonly captures(none) %0) #2 {
  %2 = getelementptr inbounds nuw i8, ptr %0, i64 24
  %3 = load ptr, ptr %2, align 8, !tbaa !25
  %.not = icmp eq ptr %3, null
  br i1 %.not, label %11, label %4

4:                                                ; preds = %1
  %5 = load ptr, ptr %3, align 8, !tbaa !28
  %6 = getelementptr inbounds nuw i8, ptr %5, i64 96
  %7 = load ptr, ptr %6, align 8
  %8 = tail call noundef i32 %7(ptr noundef nonnull align 8 dereferenceable(8) %3)
  %9 = sext i32 %8 to i64
  %10 = tail call ptr @PyLong_FromLong(i64 noundef %9)
  br label %11

11:                                               ; preds = %1, %4
  %.0 = phi ptr [ %10, %4 ], [ null, %1 ]
  ret ptr %.0
}